target datalayout = "e-m:e-p270:32:32-p271:32:32-p272:64:64-i64:64-i128:128-f80:128-n8:16:32:64-S128"
target triple = "x86_64-pc-linux-gnu"

%struct.reassembly_table = type { ptr, ptr, ptr, ptr, ptr }
%struct.reassembly_table_functions = type { ptr, ptr, ptr, ptr, ptr, ptr }

@proto_register_x25.ett = internal global [7 x ptr] [ptr @ett_x25, ptr @ett_x25_gfi, ptr @ett_x25_facilities, ptr @ett_x25_facility, ptr @ett_x25_user_data, ptr @ett_x25_segment, ptr @ett_x25_segments], align 16
@.str.212 = private unnamed_addr constant [5 x i8] c"X.25\00", align 1
@.str.213 = private unnamed_addr constant [4 x i8] c"x25\00", align 1
@proto_x25 = internal global i32 0, align 4
@.str.214 = private unnamed_addr constant [9 x i8] c"x.25.spi\00", align 1
@.str.215 = private unnamed_addr constant [35 x i8] c"X.25 secondary protocol identifier\00", align 1
@x25_subdissector_table = internal global ptr null, align 8
@.str.216 = private unnamed_addr constant [5 x i8] c"x.25\00", align 1
@.str.217 = private unnamed_addr constant [13 x i8] c"X.25 payload\00", align 1
@x25_heur_subdissector_list = internal global ptr null, align 8
@.str.218 = private unnamed_addr constant [9 x i8] c"x.25_dir\00", align 1
@x25_handle = internal global ptr null, align 8
@.str.219 = private unnamed_addr constant [17 x i8] c"non_q_bit_is_sna\00", align 1
@.str.220 = private unnamed_addr constant [20 x i8] c"payload_is_qllc_sna\00", align 1
@.str.221 = private unnamed_addr constant [20 x i8] c"Default to QLLC/SNA\00", align 1
@.str.222 = private unnamed_addr constant [73 x i8] c"If CALL REQUEST not seen or didn't specify protocol, dissect as QLLC/SNA\00", align 1
@payload_is_qllc_sna = internal global i8 0, align 1
@.str.223 = private unnamed_addr constant [28 x i8] c"call_request_nodata_is_cotp\00", align 1
@.str.224 = private unnamed_addr constant [42 x i8] c"Assume COTP for Call Request without data\00", align 1
@.str.225 = private unnamed_addr constant [65 x i8] c"If CALL REQUEST has no data, assume the protocol handled is COTP\00", align 1
@call_request_nodata_is_cotp = internal global i8 0, align 1
@.str.226 = private unnamed_addr constant [19 x i8] c"payload_check_data\00", align 1
@.str.227 = private unnamed_addr constant [28 x i8] c"Check data for COTP/IP/CLNP\00", align 1
@.str.228 = private unnamed_addr constant [106 x i8] c"If CALL REQUEST not seen or didn't specify protocol, check user data before checking heuristic dissectors\00", align 1
@payload_check_data = internal global i8 0, align 1
@.str.229 = private unnamed_addr constant [11 x i8] c"reassemble\00", align 1
@.str.230 = private unnamed_addr constant [35 x i8] c"Reassemble fragmented X.25 packets\00", align 1
@reassemble_x25 = internal global i8 1, align 1
@x25_reassembly_table = internal global %struct.reassembly_table zeroinitializer, align 8
@addresses_reassembly_table_functions = external constant %struct.reassembly_table_functions, align 8

; Function Attrs: null_pointer_is_valid sspstrong uwtable
define hidden void @proto_register_x25() #0 {
  %1 = alloca ptr, align 8
  %2 = alloca ptr, align 8
  call void @llvm.lifetime.start.p0(i64 8, ptr %1) #6
  call void @llvm.lifetime.start.p0(i64 8, ptr %2) #6
  %3 = call i32 @proto_register_protocol(ptr noundef @.str.212, ptr noundef @.str.212, ptr noundef @.str.213)
  store i32 %3, ptr @proto_x25, align 4
  %4 = load i32, ptr @proto_x25, align 4
  call void @proto_register_field_array(i32 noundef %4, ptr noundef @proto_register_x25.hf, i32 noundef 104)
  call void @proto_register_subtree_array(ptr noundef @proto_register_x25.ett, i32 noundef 7)
  %5 = load i32, ptr @proto_x25, align 4
  %6 = call ptr @expert_register_protocol(i32 noundef %5)
  store ptr %6, ptr %2, align 8
  %7 = load ptr, ptr %2, align 8
  call void @expert_register_field_array(ptr noundef %7, ptr noundef @proto_register_x25.ei, i32 noundef 1)
  %8 = load i32, ptr @proto_x25, align 4
  %9 = call ptr @register_dissector_table(ptr noundef @.str.214, ptr noundef @.str.215, i32 noundef %8, i32 noundef 4, i32 noundef 2)
  store ptr %9, ptr @x25_subdissector_table, align 8
  %10 = load i32, ptr @proto_x25, align 4
  %11 = call ptr @register_heur_dissector_list_with_description(ptr noundef @.str.216, ptr noundef @.str.217, i32 noundef %10)
  store ptr %11, ptr @x25_heur_subdissector_list, align 8
  %12 = load i32, ptr @proto_x25, align 4
  %13 = call ptr @register_dissector(ptr noundef @.str.218, ptr noundef @dissect_x25_dir, i32 noundef %12)
  %14 = load i32, ptr @proto_x25, align 4
  %15 = call ptr @register_dissector(ptr noundef @.str.216, ptr noundef @dissect_x25, i32 noundef %14)
  store ptr %15, ptr @x25_handle, align 8
  %16 = load i32, ptr @proto_x25, align 4
  %17 = call ptr @prefs_register_protocol(i32 noundef %16, ptr noundef null)
  store ptr %17, ptr %1, align 8
  %18 = load ptr, ptr %1, align 8
  call void @prefs_register_module_alias(ptr noundef @.str.216, ptr noundef %18)
  %19 = load ptr, ptr %1, align 8
  call void @prefs_register_obsolete_preference(ptr noundef %19, ptr noundef @.str.219)
  %20 = load ptr, ptr %1, align 8
  call void @prefs_register_bool_preference(ptr noundef %20, ptr noundef @.str.220, ptr noundef @.str.221, ptr noundef @.str.222, ptr noundef @payload_is_qllc_sna)
  %21 = load ptr, ptr %1, align 8
  call void @prefs_register_bool_preference(ptr noundef %21, ptr noundef @.str.223, ptr noundef @.str.224, ptr noundef @.str.225, ptr noundef @call_request_nodata_is_cotp)
  %22 = load ptr, ptr %1, align 8
  call void @prefs_register_bool_preference(ptr noundef %22, ptr noundef @.str.226, ptr noundef @.str.227, ptr noundef @.str.228, ptr noundef @payload_check_data)
  %23 = load ptr, ptr %1, align 8
  call void @prefs_register_bool_preference(ptr noundef %23, ptr noundef @.str.229, ptr noundef @.str.230, ptr noundef @.str.230, ptr noundef @reassemble_x25)
  call void @reassembly_table_register(ptr noundef @x25_reassembly_table, ptr noundef @addresses_reassembly_table_functions)
  call void @llvm.lifetime.end.p0(i64 8, ptr %2) #6
  call void @llvm.lifetime.end.p0(i64 8, ptr %1) #6
  ret void
}