; Function Attrs: null_pointer_is_valid sspstrong uwtable
define hidden void @proto_register_x25() local_unnamed_addr #0 {
  %1 = tail call i32 @proto_register_protocol(ptr noundef nonnull @.str.212, ptr noundef nonnull @.str.212, ptr noundef nonnull @.str.213)
  store i32 %1, ptr @proto_x25, align 4
  tail call void @proto_register_field_array(i32 noundef %1, ptr noundef nonnull @proto_register_x25.hf, i32 noundef 104)
  tail call void @proto_register_subtree_array(ptr noundef nonnull @proto_register_x25.ett, i32 noundef 7)
  %2 = load i32, ptr @proto_x25, align 4
  %3 = tail call ptr @expert_register_protocol(i32 noundef %2)
  tail call void @expert_register_field_array(ptr noundef %3, ptr noundef nonnull @proto_register_x25.ei, i32 noundef 1)
  %4 = load i32, ptr @proto_x25, align 4
  %5 = tail call ptr @register_dissector_table(ptr noundef nonnull @.str.214, ptr noundef nonnull @.str.215, i32 noundef %4, i32 noundef 4, i32 noundef 2)
  store ptr %5, ptr @x25_subdissector_table, align 8
  %6 = load i32, ptr @proto_x25, align 4
  %7 = tail call ptr @register_heur_dissector_list_with_description(ptr noundef nonnull @.str.216, ptr noundef nonnull @.str.217, i32 noundef %6)
  store ptr %7, ptr @x25_heur_subdissector_list, align 8
  %8 = load i32, ptr @proto_x25, align 4
  %9 = tail call ptr @register_dissector(ptr noundef nonnull @.str.218, ptr noundef nonnull @dissect_x25_dir, i32 noundef %8)
  %10 = load i32, ptr @proto_x25, align 4
  %11 = tail call ptr @register_dissector(ptr noundef nonnull @.str.216, ptr noundef nonnull @dissect_x25, i32 noundef %10)
  store ptr %11, ptr @x25_handle, align 8
  %12 = load i32, ptr @proto_x25, align 4
  %13 = tail call ptr @prefs_register_protocol(i32 noundef %12, ptr noundef null)
  tail call void @prefs_register_module_alias(ptr noundef nonnull @.str.216, ptr noundef %13)
  tail call void @prefs_register_obsolete_preference(ptr noundef %13, ptr noundef nonnull @.str.219)
  tail call void @prefs_register_bool_preference(ptr noundef %13, ptr noundef nonnull @.str.220, ptr noundef nonnull @.str.221, ptr noundef nonnull @.str.222, ptr noundef nonnull @payload_is_qllc_sna)
  tail call void @prefs_register_bool_preference(ptr noundef %13, ptr noundef nonnull @.str.223, ptr noundef nonnull @.str.224, ptr noundef nonnull @.str.225, ptr noundef nonnull @call_request_nodata_is_cotp)
  tail call void @prefs_register_bool_preference(ptr noundef %13, ptr noundef nonnull @.str.226, ptr noundef nonnull @.str.227, ptr noundef nonnull @.str.228, ptr noundef nonnull @payload_check_data)
  tail call void @prefs_register_bool_preference(ptr noundef %13, ptr noundef nonnull @.str.229, ptr noundef nonnull @.str.230, ptr noundef nonnull @.str.230, ptr noundef nonnull @reassemble_x25)
  tail call void @reassembly_table_register(ptr noundef nonnull @x25_reassembly_table, ptr noundef nonnull @addresses_reassembly_table_functions)
  ret void
}